target datalayout = "e-m:e-p270:32:32-p271:32:32-p272:64:64-i64:64-i128:128-f80:128-n8:16:32:64-S128"
target triple = "x86_64-pc-linux-gnu"

%"class.icu_77::number::Notation" = type { i32, %"union.icu_77::number::Notation::NotationUnion" }
%"union.icu_77::number::Notation::NotationUnion" = type { %"struct.icu_77::number::Notation::NotationUnion::ScientificSettings" }
%"struct.icu_77::number::Notation::NotationUnion::ScientificSettings" = type { i8, i8, i16, i32 }
%"class.icu_77::MeasureUnit" = type <{ %"class.icu_77::UObject", ptr, i16, i8, [5 x i8] }>
%"class.icu_77::UObject" = type { ptr }
%"class.icu_77::number::Precision" = type <{ i32, [4 x i8], %"union.icu_77::number::Precision::PrecisionUnion", i32, [4 x i8] }>
%"union.icu_77::number::Precision::PrecisionUnion" = type { %"struct.icu_77::number::Precision::PrecisionUnion::IncrementSettings" }
%"struct.icu_77::number::Precision::PrecisionUnion::IncrementSettings" = type { i64, i16, i16 }
%"struct.icu_77::number::impl::MacroProps" = type { [4 x i8], %"class.icu_77::number::Notation", %"class.icu_77::MeasureUnit", %"class.icu_77::MeasureUnit", %"class.icu_77::number::Precision", i32, %"class.icu_77::number::impl::Grouper", %"class.icu_77::number::impl::Padder", %"class.icu_77::number::IntegerWidth", %"class.icu_77::number::impl::SymbolsWrapper", i32, i32, i8, i32, %"class.icu_77::number::Scale", %"class.icu_77::number::impl::StringProp", %"class.icu_77::number::impl::StringProp", ptr, ptr, i32, [4 x i8], %"class.icu_77::Locale" }
%"class.icu_77::number::impl::Grouper" = type { i16, i16, i16, i32 }
%"class.icu_77::number::impl::Padder" = type { i32, %union.anon }
%union.anon = type { %struct.anon.1 }
%struct.anon.1 = type { i32, i32 }
%"class.icu_77::number::IntegerWidth" = type <{ %union.anon.2, i8, [3 x i8] }>
%union.anon.2 = type { i32, [4 x i8] }
%"class.icu_77::number::impl::SymbolsWrapper" = type { i32, %union.anon.4 }
%union.anon.4 = type { ptr }
%"class.icu_77::number::Scale" = type <{ i32, [4 x i8], ptr, i32, [4 x i8] }>
%"class.icu_77::number::impl::StringProp" = type { ptr, i16, i32 }
%"class.icu_77::Locale" = type <{ %"class.icu_77::UObject", [12 x i8], [6 x i8], [4 x i8], [2 x i8], i32, [4 x i8], ptr, [157 x i8], [3 x i8], ptr, i8, [7 x i8] }>

; Function Attrs: inlinehint mustprogress nounwind uwtable
define linkonce_odr noundef zeroext i1 @_ZN6icu_776number4impl8skeleton14isWildcardCharEDs(i16 noundef zeroext %0) #2 comdat {
  %2 = alloca i16, align 2
  store i16 %0, ptr %2, align 2, !tbaa !49
  %3 = load i16, ptr %2, align 2, !tbaa !49
  %4 = zext i16 %3 to i32
  %5 = icmp eq i32 %4, 42
  br i1 %5, label %10, label %6

6:                                                ; preds = %1
  %7 = load i16, ptr %2, align 2, !tbaa !49
  %8 = zext i16 %7 to i32
  %9 = icmp eq i32 %8, 43
  br label %10

10:                                               ; preds = %6, %1
  %11 = phi i1 [ true, %1 ], [ %9, %6 ]
  ret i1 %11
}

; Function Attrs: mustprogress uwtable
define void @_ZN6icu_776number4impl17blueprint_helpers15parseDigitsStemERKNS_13StringSegmentERNS1_10MacroPropsER10UErrorCode(ptr noundef nonnull align 8 dereferenceable(17) %0, ptr noundef nonnull align 8 dereferenceable(472) %1, ptr noundef nonnull align 4 dereferenceable(4) %2) #1 {
  %4 = alloca ptr, align 8
  %5 = alloca ptr, align 8
  %6 = alloca ptr, align 8
  %7 = alloca i32, align 4
  %8 = alloca i32, align 4
  %9 = alloca i32, align 4
  %10 = alloca i32, align 4
  %11 = alloca %"class.icu_77::number::Precision", align 8
  %12 = alloca %"class.icu_77::number::Precision", align 8
  store ptr %0, ptr %4, align 8, !tbaa !132
  store ptr %1, ptr %5, align 8, !tbaa !75
  store ptr %2, ptr %6, align 8, !tbaa !22
  call void @llvm.lifetime.start.p0(i64 4, ptr %7) #14
  store i32 0, ptr %7, align 4, !tbaa !14
  call void @llvm.lifetime.start.p0(i64 4, ptr %8) #14
  store i32 0, ptr %8, align 4, !tbaa !14
  call void @llvm.lifetime.start.p0(i64 4, ptr %9) #14
  br label %13

13:                                               ; preds = %29, %3
  %14 = load i32, ptr %7, align 4, !tbaa !14
  %15 = load ptr, ptr %4, align 8, !tbaa !132
  %16 = call noundef i32 @_ZNK6icu_7713StringSegment6lengthEv(ptr noundef nonnull align 8 dereferenceable(17) %15)
  %17 = icmp slt i32 %14, %16
  br i1 %17, label %18, label %32

18:                                               ; preds = %13
  %19 = load ptr, ptr %4, align 8, !tbaa !132
  %20 = load i32, ptr %7, align 4, !tbaa !14
  %21 = call noundef zeroext i16 @_ZNK6icu_7713StringSegment6charAtEi(ptr noundef nonnull align 8 dereferenceable(17) %19, i32 noundef %20)
  %22 = zext i16 %21 to i32
  %23 = icmp eq i32 %22, 64
  br i1 %23, label %24, label %27

24:                                               ; preds = %18
  %25 = load i32, ptr %8, align 4, !tbaa !14
  %26 = add nsw i32 %25, 1
  store i32 %26, ptr %8, align 4, !tbaa !14
  br label %28

27:                                               ; preds = %18
  br label %32

28:                                               ; preds = %24
  br label %29

29:                                               ; preds = %28
  %30 = load i32, ptr %7, align 4, !tbaa !14
  %31 = add nsw i32 %30, 1
  store i32 %31, ptr %7, align 4, !tbaa !14
  br label %13, !llvm.loop !138

32:                                               ; preds = %27, %13
  %33 = load i32, ptr %7, align 4, !tbaa !14
  %34 = load ptr, ptr %4, align 8, !tbaa !132
  %35 = call noundef i32 @_ZNK6icu_7713StringSegment6lengthEv(ptr noundef nonnull align 8 dereferenceable(17) %34)
  %36 = icmp slt i32 %33, %35
  br i1 %36, label %37, label %68

37:                                               ; preds = %32
  %38 = load ptr, ptr %4, align 8, !tbaa !132
  %39 = load i32, ptr %7, align 4, !tbaa !14
  %40 = call noundef zeroext i16 @_ZNK6icu_7713StringSegment6charAtEi(ptr noundef nonnull align 8 dereferenceable(17) %38, i32 noundef %39)
  %41 = call noundef zeroext i1 @_ZN6icu_776number4impl8skeleton14isWildcardCharEDs(i16 noundef zeroext %40)
  br i1 %41, label %42, label %45

42:                                               ; preds = %37
  store i32 -1, ptr %9, align 4, !tbaa !14
  %43 = load i32, ptr %7, align 4, !tbaa !14
  %44 = add nsw i32 %43, 1
  store i32 %44, ptr %7, align 4, !tbaa !14
  br label %67

45:                                               ; preds = %37
  %46 = load i32, ptr %8, align 4, !tbaa !14
  store i32 %46, ptr %9, align 4, !tbaa !14
  br label %47

47:                                               ; preds = %63, %45
  %48 = load i32, ptr %7, align 4, !tbaa !14
  %49 = load ptr, ptr %4, align 8, !tbaa !132
  %50 = call noundef i32 @_ZNK6icu_7713StringSegment6lengthEv(ptr noundef nonnull align 8 dereferenceable(17) %49)
  %51 = icmp slt i32 %48, %50
  br i1 %51, label %52, label %66

52:                                               ; preds = %47
  %53 = load ptr, ptr %4, align 8, !tbaa !132
  %54 = load i32, ptr %7, align 4, !tbaa !14
  %55 = call noundef zeroext i16 @_ZNK6icu_7713StringSegment6charAtEi(ptr noundef nonnull align 8 dereferenceable(17) %53, i32 noundef %54)
  %56 = zext i16 %55 to i32
  %57 = icmp eq i32 %56, 35
  br i1 %57, label %58, label %61

58:                                               ; preds = %52
  %59 = load i32, ptr %9, align 4, !tbaa !14
  %60 = add nsw i32 %59, 1
  store i32 %60, ptr %9, align 4, !tbaa !14
  br label %62

61:                                               ; preds = %52
  br label %66

62:                                               ; preds = %58
  br label %63

63:                                               ; preds = %62
  %64 = load i32, ptr %7, align 4, !tbaa !14
  %65 = add nsw i32 %64, 1
  store i32 %65, ptr %7, align 4, !tbaa !14
  br label %47, !llvm.loop !139

66:                                               ; preds = %61, %47
  br label %67

67:                                               ; preds = %66, %42
  br label %70

68:                                               ; preds = %32
  %69 = load i32, ptr %8, align 4, !tbaa !14
  store i32 %69, ptr %9, align 4, !tbaa !14
  br label %70

70:                                               ; preds = %68, %67
  %71 = load i32, ptr %7, align 4, !tbaa !14
  %72 = load ptr, ptr %4, align 8, !tbaa !132
  %73 = call noundef i32 @_ZNK6icu_7713StringSegment6lengthEv(ptr noundef nonnull align 8 dereferenceable(17) %72)
  %74 = icmp slt i32 %71, %73
  br i1 %74, label %75, label %77

75:                                               ; preds = %70
  %76 = load ptr, ptr %6, align 8, !tbaa !22
  store i32 65811, ptr %76, align 4, !tbaa !15
  store i32 1, ptr %10, align 4
  br label %90

77:                                               ; preds = %70
  %78 = load i32, ptr %9, align 4, !tbaa !14
  %79 = icmp eq i32 %78, -1
  br i1 %79, label %80, label %84

80:                                               ; preds = %77
  call void @llvm.lifetime.start.p0(i64 32, ptr %11) #14
  %81 = load i32, ptr %8, align 4, !tbaa !14
  call void @_ZN6icu_776number9Precision20minSignificantDigitsEi(ptr dead_on_unwind writable sret(%"class.icu_77::number::Precision") align 8 %11, i32 noundef %81)
  %82 = load ptr, ptr %5, align 8, !tbaa !75
  %83 = getelementptr inbounds nuw %"struct.icu_77::number::impl::MacroProps", ptr %82, i32 0, i32 4
  call void @llvm.memcpy.p0.p0.i64(ptr align 8 %83, ptr align 8 %11, i64 28, i1 false)
  call void @llvm.lifetime.end.p0(i64 32, ptr %11) #14
  br label %89

84:                                               ; preds = %77
  call void @llvm.lifetime.start.p0(i64 32, ptr %12) #14
  %85 = load i32, ptr %8, align 4, !tbaa !14
  %86 = load i32, ptr %9, align 4, !tbaa !14
  call void @_ZN6icu_776number9Precision23minMaxSignificantDigitsEii(ptr dead_on_unwind writable sret(%"class.icu_77::number::Precision") align 8 %12, i32 noundef %85, i32 noundef %86)
  %87 = load ptr, ptr %5, align 8, !tbaa !75
  %88 = getelementptr inbounds nuw %"struct.icu_77::number::impl::MacroProps", ptr %87, i32 0, i32 4
  call void @llvm.memcpy.p0.p0.i64(ptr align 8 %88, ptr align 8 %12, i64 28, i1 false)
  call void @llvm.lifetime.end.p0(i64 32, ptr %12) #14
  br label %89

89:                                               ; preds = %84, %80
  store i32 0, ptr %10, align 4
  br label %90

90:                                               ; preds = %89, %75
  call void @llvm.lifetime.end.p0(i64 4, ptr %9) #14
  call void @llvm.lifetime.end.p0(i64 4, ptr %8) #14
  call void @llvm.lifetime.end.p0(i64 4, ptr %7) #14
  %91 = load i32, ptr %10, align 4
  switch i32 %91, label %93 [
    i32 0, label %92
    i32 1, label %92
  ]

92:                                               ; preds = %90, %90
  ret void

93:                                               ; preds = %90
  unreachable
}