; Function Attrs: mustprogress uwtable
define void @_ZN6icu_776number4impl17blueprint_helpers15parseDigitsStemERKNS_13StringSegmentERNS1_10MacroPropsER10UErrorCode(ptr noundef nonnull align 8 dereferenceable(17) %0, ptr noundef nonnull writeonly align 8 captures(none) dereferenceable(472) %1, ptr noundef nonnull writeonly align 4 captures(none) dereferenceable(4) %2) local_unnamed_addr #1 {
  %4 = alloca %"class.icu_77::number::Precision", align 8
  %5 = alloca %"class.icu_77::number::Precision", align 8
  %6 = tail call noundef i32 @_ZNK6icu_7713StringSegment6lengthEv(ptr noundef nonnull align 8 dereferenceable(17) %0)
  %7 = icmp sgt i32 %6, 0
  br i1 %7, label %.lr.ph, label %._crit_edge

.lr.ph:                                           ; preds = %3, %10
  %.02736 = phi i32 [ %11, %10 ], [ 0, %3 ]
  %8 = tail call noundef zeroext i16 @_ZNK6icu_7713StringSegment6charAtEi(ptr noundef nonnull align 8 dereferenceable(17) %0, i32 noundef %.02736)
  %9 = icmp eq i16 %8, 64
  br i1 %9, label %10, label %._crit_edge

10:                                               ; preds = %.lr.ph
  %11 = add nuw nsw i32 %.02736, 1
  %12 = tail call noundef i32 @_ZNK6icu_7713StringSegment6lengthEv(ptr noundef nonnull align 8 dereferenceable(17) %0)
  %13 = icmp slt i32 %11, %12
  br i1 %13, label %.lr.ph, label %._crit_edge, !llvm.loop !105

._crit_edge:                                      ; preds = %10, %.lr.ph, %3
  %.028.lcssa = phi i32 [ 0, %3 ], [ %.02736, %.lr.ph ], [ %11, %10 ]
  %14 = tail call noundef i32 @_ZNK6icu_7713StringSegment6lengthEv(ptr noundef nonnull align 8 dereferenceable(17) %0)
  %15 = icmp slt i32 %.028.lcssa, %14
  br i1 %15, label %16, label %.loopexit

16:                                               ; preds = %._crit_edge
  %17 = tail call noundef zeroext i16 @_ZNK6icu_7713StringSegment6charAtEi(ptr noundef nonnull align 8 dereferenceable(17) %0, i32 noundef %.028.lcssa)
  %18 = and i16 %17, -2
  %19 = icmp eq i16 %18, 42
  br i1 %19, label %.thread, label %.preheader

.preheader:                                       ; preds = %16
  %20 = tail call noundef i32 @_ZNK6icu_7713StringSegment6lengthEv(ptr noundef nonnull align 8 dereferenceable(17) %0)
  %21 = icmp slt i32 %.028.lcssa, %20
  br i1 %21, label %.lr.ph43, label %.loopexit

.lr.ph43:                                         ; preds = %.preheader, %24
  %.042 = phi i32 [ %25, %24 ], [ %.028.lcssa, %.preheader ]
  %.12941 = phi i32 [ %26, %24 ], [ %.028.lcssa, %.preheader ]
  %22 = tail call noundef zeroext i16 @_ZNK6icu_7713StringSegment6charAtEi(ptr noundef nonnull align 8 dereferenceable(17) %0, i32 noundef %.12941)
  %23 = icmp eq i16 %22, 35
  br i1 %23, label %24, label %.loopexit

24:                                               ; preds = %.lr.ph43
  %25 = add nuw nsw i32 %.042, 1
  %26 = add nuw nsw i32 %.12941, 1
  %27 = tail call noundef i32 @_ZNK6icu_7713StringSegment6lengthEv(ptr noundef nonnull align 8 dereferenceable(17) %0)
  %28 = icmp slt i32 %26, %27
  br i1 %28, label %.lr.ph43, label %.loopexit, !llvm.loop !106

.loopexit:                                        ; preds = %24, %.lr.ph43, %.preheader, %._crit_edge
  %.2 = phi i32 [ %.028.lcssa, %._crit_edge ], [ %.028.lcssa, %.preheader ], [ %26, %24 ], [ %.12941, %.lr.ph43 ]
  %.1 = phi i32 [ %.028.lcssa, %._crit_edge ], [ %.028.lcssa, %.preheader ], [ %25, %24 ], [ %.042, %.lr.ph43 ]
  %29 = tail call noundef i32 @_ZNK6icu_7713StringSegment6lengthEv(ptr noundef nonnull align 8 dereferenceable(17) %0)
  %30 = icmp slt i32 %.2, %29
  br i1 %30, label %34, label %37

.thread:                                          ; preds = %16
  %31 = add nuw nsw i32 %.028.lcssa, 1
  %32 = tail call noundef i32 @_ZNK6icu_7713StringSegment6lengthEv(ptr noundef nonnull align 8 dereferenceable(17) %0)
  %33 = icmp slt i32 %31, %32
  br i1 %33, label %34, label %35

34:                                               ; preds = %.thread, %.loopexit
  store i32 65811, ptr %2, align 4, !tbaa !13
  br label %39

35:                                               ; preds = %.thread
  call void @llvm.lifetime.start.p0(i64 32, ptr nonnull %4) #18
  call void @_ZN6icu_776number9Precision20minSignificantDigitsEi(ptr dead_on_unwind nonnull writable sret(%"class.icu_77::number::Precision") align 8 %4, i32 noundef %.028.lcssa)
  %36 = getelementptr inbounds nuw i8, ptr %1, i64 64
  call void @llvm.memcpy.p0.p0.i64(ptr noundef nonnull align 8 dereferenceable(28) %36, ptr noundef nonnull align 8 dereferenceable(28) %4, i64 28, i1 false)
  call void @llvm.lifetime.end.p0(i64 32, ptr nonnull %4) #18
  br label %39

37:                                               ; preds = %.loopexit
  call void @llvm.lifetime.start.p0(i64 32, ptr nonnull %5) #18
  call void @_ZN6icu_776number9Precision23minMaxSignificantDigitsEii(ptr dead_on_unwind nonnull writable sret(%"class.icu_77::number::Precision") align 8 %5, i32 noundef %.028.lcssa, i32 noundef %.1)
  %38 = getelementptr inbounds nuw i8, ptr %1, i64 64
  call void @llvm.memcpy.p0.p0.i64(ptr noundef nonnull align 8 dereferenceable(28) %38, ptr noundef nonnull align 8 dereferenceable(28) %5, i64 28, i1 false)
  call void @llvm.lifetime.end.p0(i64 32, ptr nonnull %5) #18
  br label %39

39:                                               ; preds = %35, %37, %34
  ret void
}